; Function Attrs: nounwind uwtable
define ptr @l_Array_foldlMUnsafe_fold___at_Lean_Elab_Tactic_RCases_rcases___spec__3(ptr noundef readonly captures(none) %0, i64 noundef %1, i64 noundef %2, ptr noundef %3) local_unnamed_addr #1 {
  %.not49 = icmp eq i64 %1, %2
  br i1 %.not49, label %._crit_edge, label %.lr.ph

.lr.ph:                                           ; preds = %4
  %5 = getelementptr inbounds nuw i8, ptr %0, i64 24
  br label %6

6:                                                ; preds = %.lr.ph, %61
  %.02151 = phi i64 [ %1, %.lr.ph ], [ %34, %61 ]
  %.02550 = phi ptr [ %3, %.lr.ph ], [ %.227, %61 ]
  %7 = getelementptr inbounds nuw [0 x ptr], ptr %5, i64 0, i64 %.02151
  %8 = load ptr, ptr %7, align 8, !tbaa !4
  %9 = ptrtoint ptr %8 to i64
  %10 = and i64 %9, 1
  %.not.i32 = icmp eq i64 %10, 0
  br i1 %.not.i32, label %11, label %lean_array_uget.exit

11:                                               ; preds = %6
  %.val.i.i = load i32, ptr %8, align 4, !tbaa !8
  %12 = icmp sgt i32 %.val.i.i, 0
  br i1 %12, label %13, label %15, !prof !11

13:                                               ; preds = %11
  %14 = add nuw i32 %.val.i.i, 1
  store i32 %14, ptr %8, align 4, !tbaa !8
  br label %lean_array_uget.exit

15:                                               ; preds = %11
  %.not.i.i = icmp eq i32 %.val.i.i, 0
  br i1 %.not.i.i, label %lean_array_uget.exit, label %16

16:                                               ; preds = %15
  tail call void @lean_inc_ref_cold(ptr noundef nonnull %8) #5
  br label %lean_array_uget.exit

lean_array_uget.exit:                             ; preds = %6, %13, %15, %16
  %17 = getelementptr inbounds nuw i8, ptr %8, i64 8
  %18 = load ptr, ptr %17, align 8, !tbaa !4
  %19 = ptrtoint ptr %18 to i64
  %20 = and i64 %19, 1
  %.not46 = icmp eq i64 %20, 0
  br i1 %.not46, label %21, label %lean_inc.exit29

21:                                               ; preds = %lean_array_uget.exit
  %.val.i = load i32, ptr %18, align 4, !tbaa !8
  %22 = icmp sgt i32 %.val.i, 0
  br i1 %22, label %23, label %25, !prof !11

23:                                               ; preds = %21
  %24 = add nuw i32 %.val.i, 1
  store i32 %24, ptr %18, align 4, !tbaa !8
  br label %lean_inc.exit29

25:                                               ; preds = %21
  %.not.i33 = icmp eq i32 %.val.i, 0
  br i1 %.not.i33, label %lean_inc.exit29, label %26

26:                                               ; preds = %25
  tail call void @lean_inc_ref_cold(ptr noundef nonnull %18) #5
  br label %lean_inc.exit29

lean_inc.exit29:                                  ; preds = %26, %25, %23, %lean_array_uget.exit
  br i1 %.not.i32, label %27, label %lean_dec.exit28

27:                                               ; preds = %lean_inc.exit29
  %28 = load i32, ptr %8, align 4, !tbaa !8
  %29 = icmp sgt i32 %28, 1
  br i1 %29, label %30, label %32, !prof !11

30:                                               ; preds = %27
  %31 = add nsw i32 %28, -1
  store i32 %31, ptr %8, align 4, !tbaa !8
  br label %lean_dec.exit28

32:                                               ; preds = %27
  %.not.i = icmp eq i32 %28, 0
  br i1 %.not.i, label %lean_dec.exit28, label %33

33:                                               ; preds = %32
  tail call void @lean_dec_ref_cold(ptr noundef nonnull %8) #5
  br label %lean_dec.exit28

lean_dec.exit28:                                  ; preds = %33, %32, %30, %lean_inc.exit29
  %34 = add i64 %.02151, 1
  br i1 %.not46, label %38, label %35

35:                                               ; preds = %lean_dec.exit28
  %36 = lshr i64 %19, 1
  %37 = trunc i64 %36 to i32
  br label %lean_obj_tag.exit

38:                                               ; preds = %lean_dec.exit28
  %39 = getelementptr i8, ptr %18, i64 4
  %.val.i35 = load i32, ptr %39, align 4
  %40 = lshr i32 %.val.i35, 24
  br label %lean_obj_tag.exit

lean_obj_tag.exit:                                ; preds = %35, %38
  %.0.i = phi i32 [ %37, %35 ], [ %40, %38 ]
  %41 = icmp eq i32 %.0.i, 0
  br i1 %41, label %61, label %42

42:                                               ; preds = %lean_obj_tag.exit
  %43 = getelementptr inbounds nuw i8, ptr %18, i64 8
  %44 = load ptr, ptr %43, align 8, !tbaa !4
  %45 = ptrtoint ptr %44 to i64
  %46 = and i64 %45, 1
  %.not48 = icmp eq i64 %46, 0
  br i1 %.not48, label %47, label %lean_inc.exit

47:                                               ; preds = %42
  %.val.i36 = load i32, ptr %44, align 4, !tbaa !8
  %48 = icmp sgt i32 %.val.i36, 0
  br i1 %48, label %49, label %51, !prof !11

49:                                               ; preds = %47
  %50 = add nuw i32 %.val.i36, 1
  store i32 %50, ptr %44, align 4, !tbaa !8
  br label %lean_inc.exit

51:                                               ; preds = %47
  %.not.i37 = icmp eq i32 %.val.i36, 0
  br i1 %.not.i37, label %lean_inc.exit, label %52

52:                                               ; preds = %51
  tail call void @lean_inc_ref_cold(ptr noundef nonnull %44) #5
  br label %lean_inc.exit

lean_inc.exit:                                    ; preds = %52, %51, %49, %42
  br i1 %.not46, label %53, label %lean_dec.exit

53:                                               ; preds = %lean_inc.exit
  %54 = load i32, ptr %18, align 4, !tbaa !8
  %55 = icmp sgt i32 %54, 1
  br i1 %55, label %56, label %58, !prof !11

56:                                               ; preds = %53
  %57 = add nsw i32 %54, -1
  store i32 %57, ptr %18, align 4, !tbaa !8
  br label %lean_dec.exit

58:                                               ; preds = %53
  %.not.i30 = icmp eq i32 %54, 0
  br i1 %.not.i30, label %lean_dec.exit, label %59

59:                                               ; preds = %58
  tail call void @lean_dec_ref_cold(ptr noundef nonnull %18) #5
  br label %lean_dec.exit

lean_dec.exit:                                    ; preds = %59, %58, %56, %lean_inc.exit
  %60 = tail call ptr @lean_array_push(ptr noundef %.02550, ptr noundef %44) #5
  br label %61

61:                                               ; preds = %lean_dec.exit, %lean_obj_tag.exit
  %.227 = phi ptr [ %60, %lean_dec.exit ], [ %.02550, %lean_obj_tag.exit ]
  %.not = icmp eq i64 %34, %2
  br i1 %.not, label %._crit_edge, label %6

._crit_edge:                                      ; preds = %61, %4
  %.025.lcssa = phi ptr [ %3, %4 ], [ %.227, %61 ]
  ret ptr %.025.lcssa
}